target datalayout = "e-m:e-p270:32:32-p271:32:32-p272:64:64-i64:64-i128:128-f80:128-n8:16:32:64-S128"
target triple = "x86_64-unknown-linux-gnu"

%"class.std::_Function_base" = type { %"union.std::_Any_data", ptr }
%"union.std::_Any_data" = type { %"union.std::_Nocopy_types" }
%"union.std::_Nocopy_types" = type { { i64, i64 } }
%class.anon.39 = type { ptr, %"class.std::function.37", %"class.std::function.37" }
%"class.std::function.37" = type { %"class.std::_Function_base", ptr }
%"struct.std::thread::_State_impl" = type { %"struct.std::thread::_State", %"struct.std::thread::_Invoker" }
%"struct.std::thread::_State" = type { ptr }
%"struct.std::thread::_Invoker" = type { %"class.std::tuple.57" }
%"class.std::tuple.57" = type { %"struct.std::_Tuple_impl.58" }
%"struct.std::_Tuple_impl.58" = type { %"struct.std::_Head_base.59" }
%"struct.std::_Head_base.59" = type { %class.anon.39 }

; Function Attrs: mustprogress nounwind uwtable
define linkonce_odr dso_local void @_ZNSt14_Function_baseD2Ev(ptr noundef nonnull align 8 dereferenceable(24) %this) unnamed_addr #2 comdat align 2 personality ptr @__gxx_personality_v0 {
entry:
  %this.addr = alloca ptr, align 8
  store ptr %this, ptr %this.addr, align 8
  %this1 = load ptr, ptr %this.addr, align 8
  %_M_manager = getelementptr inbounds %"class.std::_Function_base", ptr %this1, i32 0, i32 1
  %0 = load ptr, ptr %_M_manager, align 8
  %tobool = icmp ne ptr %0, null
  br i1 %tobool, label %if.then, label %if.end

if.then:                                          ; preds = %entry
  %_M_manager2 = getelementptr inbounds %"class.std::_Function_base", ptr %this1, i32 0, i32 1
  %1 = load ptr, ptr %_M_manager2, align 8
  %_M_functor = getelementptr inbounds %"class.std::_Function_base", ptr %this1, i32 0, i32 0
  %_M_functor3 = getelementptr inbounds %"class.std::_Function_base", ptr %this1, i32 0, i32 0
  %call = invoke noundef zeroext i1 %1(ptr noundef nonnull align 8 dereferenceable(16) %_M_functor, ptr noundef nonnull align 8 dereferenceable(16) %_M_functor3, i32 noundef 3)
          to label %invoke.cont unwind label %terminate.lpad

invoke.cont:                                      ; preds = %if.then
  br label %if.end

if.end:                                           ; preds = %invoke.cont, %entry
  ret void

terminate.lpad:                                   ; preds = %if.then
  %2 = landingpad { ptr, i32 }
          catch ptr null
  %3 = extractvalue { ptr, i32 } %2, 0
  call void @__clang_call_terminate(ptr %3) #16
  unreachable
}

; Function Attrs: mustprogress nounwind uwtable
define linkonce_odr dso_local void @_ZNSt8functionIFvvEED2Ev(ptr noundef nonnull align 8 dereferenceable(32) %this) unnamed_addr #2 comdat align 2 {
entry:
  %this.addr = alloca ptr, align 8
  store ptr %this, ptr %this.addr, align 8
  %this1 = load ptr, ptr %this.addr, align 8
  call void @_ZNSt14_Function_baseD2Ev(ptr noundef nonnull align 8 dereferenceable(24) %this1) #14
  ret void
}

; Function Attrs: mustprogress nounwind uwtable
define internal void @"_ZZN6spdlog7details11thread_poolC1EmmSt8functionIFvvEES4_EN3$_0D2Ev"(ptr noundef nonnull align 8 dereferenceable(72) %this) unnamed_addr #2 align 2 {
entry:
  %this.addr = alloca ptr, align 8
  store ptr %this, ptr %this.addr, align 8
  %this1 = load ptr, ptr %this.addr, align 8
  %0 = getelementptr inbounds %class.anon.39, ptr %this1, i32 0, i32 2
  call void @_ZNSt8functionIFvvEED2Ev(ptr noundef nonnull align 8 dereferenceable(32) %0) #14
  %1 = getelementptr inbounds %class.anon.39, ptr %this1, i32 0, i32 1
  call void @_ZNSt8functionIFvvEED2Ev(ptr noundef nonnull align 8 dereferenceable(32) %1) #14
  ret void
}

; Function Attrs: mustprogress nounwind uwtable
define internal void @"_ZNSt10_Head_baseILm0EZN6spdlog7details11thread_poolC1EmmSt8functionIFvvEES5_E3$_0Lb0EED2Ev"(ptr noundef nonnull align 8 dereferenceable(72) %this) unnamed_addr #2 align 2 {
entry:
  %this.addr = alloca ptr, align 8
  store ptr %this, ptr %this.addr, align 8
  %this1 = load ptr, ptr %this.addr, align 8
  %_M_head_impl = getelementptr inbounds %"struct.std::_Head_base.59", ptr %this1, i32 0, i32 0
  call void @"_ZZN6spdlog7details11thread_poolC1EmmSt8functionIFvvEES4_EN3$_0D2Ev"(ptr noundef nonnull align 8 dereferenceable(72) %_M_head_impl) #14
  ret void
}

; Function Attrs: mustprogress nounwind uwtable
define internal void @"_ZNSt11_Tuple_implILm0EJZN6spdlog7details11thread_poolC1EmmSt8functionIFvvEES5_E3$_0EED2Ev"(ptr noundef nonnull align 8 dereferenceable(72) %this) unnamed_addr #2 align 2 {
entry:
  %this.addr = alloca ptr, align 8
  store ptr %this, ptr %this.addr, align 8
  %this1 = load ptr, ptr %this.addr, align 8
  call void @"_ZNSt10_Head_baseILm0EZN6spdlog7details11thread_poolC1EmmSt8functionIFvvEES5_E3$_0Lb0EED2Ev"(ptr noundef nonnull align 8 dereferenceable(72) %this1) #14
  ret void
}

; Function Attrs: mustprogress nounwind uwtable
define internal void @"_ZNSt5tupleIJZN6spdlog7details11thread_poolC1EmmSt8functionIFvvEES5_E3$_0EED2Ev"(ptr noundef nonnull align 8 dereferenceable(72) %this) unnamed_addr #2 align 2 {
entry:
  %this.addr = alloca ptr, align 8
  store ptr %this, ptr %this.addr, align 8
  %this1 = load ptr, ptr %this.addr, align 8
  call void @"_ZNSt11_Tuple_implILm0EJZN6spdlog7details11thread_poolC1EmmSt8functionIFvvEES5_E3$_0EED2Ev"(ptr noundef nonnull align 8 dereferenceable(72) %this1) #14
  ret void
}

; Function Attrs: mustprogress nounwind uwtable
define internal void @"_ZNSt6thread8_InvokerISt5tupleIJZN6spdlog7details11thread_poolC1EmmSt8functionIFvvEES7_E3$_0EEED2Ev"(ptr noundef nonnull align 8 dereferenceable(72) %this) unnamed_addr #2 align 2 {
entry:
  %this.addr = alloca ptr, align 8
  store ptr %this, ptr %this.addr, align 8
  %this1 = load ptr, ptr %this.addr, align 8
  %_M_t = getelementptr inbounds %"struct.std::thread::_Invoker", ptr %this1, i32 0, i32 0
  call void @"_ZNSt5tupleIJZN6spdlog7details11thread_poolC1EmmSt8functionIFvvEES5_E3$_0EED2Ev"(ptr noundef nonnull align 8 dereferenceable(72) %_M_t) #14
  ret void
}

; Function Attrs: mustprogress nounwind uwtable
define internal void @"_ZNSt6thread11_State_implINS_8_InvokerISt5tupleIJZN6spdlog7details11thread_poolC1EmmSt8functionIFvvEES8_E3$_0EEEEED2Ev"(ptr noundef nonnull align 8 dereferenceable(80) %this) unnamed_addr #2 align 2 {
entry:
  %this.addr = alloca ptr, align 8
  store ptr %this, ptr %this.addr, align 8
  %this1 = load ptr, ptr %this.addr, align 8
  store ptr getelementptr inbounds ({ [5 x ptr] }, ptr @"_ZTVNSt6thread11_State_implINS_8_InvokerISt5tupleIJZN6spdlog7details11thread_poolC1EmmSt8functionIFvvEES8_E3$_0EEEEEE", i32 0, i32 0, i32 2), ptr %this1, align 8
  %_M_func = getelementptr inbounds %"struct.std::thread::_State_impl", ptr %this1, i32 0, i32 1
  call void @"_ZNSt6thread8_InvokerISt5tupleIJZN6spdlog7details11thread_poolC1EmmSt8functionIFvvEES7_E3$_0EEED2Ev"(ptr noundef nonnull align 8 dereferenceable(72) %_M_func) #14
  call void @_ZNSt6thread6_StateD2Ev(ptr noundef nonnull align 8 dereferenceable(8) %this1) #14
  ret void
}